Certificate:
    Data:
        Version: 3 (0x2)
        Serial Number: 1 (0x1)
        Signature Algorithm: sha256WithRSAEncryption
        Issuer: C=CN, ST=Jiangsu, L=Yangzhou, O=zaddone, OU=zaddone
        Validity
            Not Before: Jun 26 09:07:57 2019 GMT
            Not After : Jun 25 09:07:57 2020 GMT
        Subject: C=CN, ST=Jiangsu, O=zaddone, OU=toutiao.com, CN=toutiao.com
        Subject Public Key Info:
            Public Key Algorithm: rsaEncryption
                RSA Public-Key: (2048 bit)
                Modulus:
                    00:cb:c8:53:2a:a7:5c:7d:5c:4e:32:91:cc:b6:ff:
                    4b:b8:10:dd:01:d0:79:58:2e:1a:00:fd:c3:7a:f3:
                    76:78:e5:95:39:ad:88:0d:30:a1:6e:4a:66:23:2f:
                    78:0e:02:3a:f6:e3:16:e3:30:78:37:ad:d5:cd:ec:
                    9d:eb:f0:68:d5:75:47:7a:c6:fe:e5:54:d5:2a:a6:
                    6c:ba:7e:ae:fa:79:bf:3e:b9:ce:4c:d5:be:ba:f6:
                    c5:ad:94:f3:5d:0c:2a:01:44:74:e7:91:79:7b:61:
                    54:49:d1:2e:9b:b6:3e:2c:58:71:de:26:be:b5:fa:
                    30:cf:20:90:c6:14:5c:15:12:cd:e8:fd:6f:d1:6d:
                    03:d6:5e:b6:5b:fb:ff:3a:ad:4f:5e:3a:74:5f:a7:
                    57:3c:15:d4:46:ac:f9:f4:05:7e:85:4a:b9:56:13:
                    70:53:7b:0a:9a:f5:dc:77:d5:7b:ee:c9:a8:cf:b2:
                    66:83:08:73:e2:ca:38:21:63:98:a3:68:7d:1e:bc:
                    d1:39:86:af:82:2f:3d:60:72:db:59:06:8b:4f:5b:
                    a6:10:06:a1:99:1d:56:b3:01:e9:e8:68:bc:48:3f:
                    2a:5f:a0:50:73:c6:7b:20:91:9a:69:c8:b8:7e:ff:
                    03:18:cb:cc:4e:11:25:e3:a7:75:20:b8:94:bb:37:
                    ac:f7
                Exponent: 65537 (0x10001)
        X509v3 extensions:
            X509v3 Basic Constraints: 
                CA:FALSE
            Netscape Comment: 
                OpenSSL Generated Certificate
            X509v3 Subject Key Identifier: 
                6B:BF:53:19:73:19:4A:D4:A6:85:2C:9E:18:0B:8F:23:2A:9F:EF:91
            X509v3 Authority Key Identifier: 
                keyid:13:81:89:2B:1F:24:D8:7A:F5:CA:5C:45:6E:D8:76:D0:27:88:93:58

    Signature Algorithm: sha256WithRSAEncryption
         35:93:8b:97:8c:ff:43:c5:c8:d6:d9:ed:eb:11:40:4e:fc:53:
         ee:13:83:f3:43:19:c6:a3:2c:4b:49:3b:47:49:d7:e7:bf:08:
         0e:64:69:99:b6:ae:36:a4:85:60:78:39:5d:47:b6:4f:2f:cc:
         f4:9b:4c:28:a1:d4:7a:83:34:7c:e7:1c:07:49:5c:95:b1:14:
         6a:c6:56:a8:96:dc:83:84:63:a9:58:45:7c:01:8f:75:d3:a8:
         a4:dc:15:5c:47:8b:da:f0:28:f1:37:10:e9:f4:d9:79:7a:21:
         39:71:9e:d0:21:0f:3c:38:76:f7:10:68:0f:ae:f9:96:cf:c5:
         6b:bc:1f:7f:9a:7e:60:d5:33:6f:26:2a:49:6a:d0:d4:52:d3:
         1a:71:b7:4b:2e:0d:31:82:89:1e:99:28:4c:e5:10:0a:de:8f:
         96:3b:05:06:76:8b:fc:c7:b0:57:bb:74:e8:a8:2e:65:4c:40:
         87:2b:f9:25:d2:cd:ab:c9:d1:4c:f4:64:cc:f6:6a:06:6e:12:
         a5:32:6e:2f:45:9b:a9:6b:cc:30:32:09:8d:4f:71:01:cc:cf:
         9b:75:a9:03:35:be:27:d3:9d:30:d1:71:0d:3a:78:24:10:79:
         c7:97:ee:89:85:14:65:60:f3:92:60:85:ac:e0:7f:5a:14:cf:
         27:80:27:7c
-----BEGIN CERTIFICATE-----
MIIDqTCCApGgAwIBAgIBATANBgkqhkiG9w0BAQsFADBWMQswCQYDVQQGEwJDTjEQ
MA4GA1UECAwHSmlhbmdzdTERMA8GA1UEBwwIWWFuZ3pob3UxEDAOBgNVBAoMB3ph
ZGRvbmUxEDAOBgNVBAsMB3phZGRvbmUwHhcNMTkwNjI2MDkwNzU3WhcNMjAwNjI1
MDkwNzU3WjBdMQswCQYDVQQGEwJDTjEQMA4GA1UECAwHSmlhbmdzdTEQMA4GA1UE
CgwHemFkZG9uZTEUMBIGA1UECwwLdG91dGlhby5jb20xFDASBgNVBAMMC3RvdXRp
YW8uY29tMIIBIjANBgkqhkiG9w0BAQEFAAOCAQ8AMIIBCgKCAQEAy8hTKqdcfVxO
MpHMtv9LuBDdAdB5WC4aAP3DevN2eOWVOa2IDTChbkpmIy94DgI69uMW4zB4N63V
zeyd6/Bo1XVHesb+5VTVKqZsun6u+nm/PrnOTNW+uvbFrZTzXQwqAUR055F5e2FU
SdEum7Y+LFhx3ia+tfowzyCQxhRcFRLN6P1v0W0D1l62W/v/Oq1PXjp0X6dXPBXU
Rqz59AV+hUq5VhNwU3sKmvXcd9V77smoz7Jmgwhz4so4IWOYo2h9HrzROYavgi89
YHLbWQaLT1umEAahmR1WswHp6Gi8SD8qX6BQc8Z7IJGaaci4fv8DGMvMThEl46d1
ILiUuzes9wIDAQABo3sweTAJBgNVHRMEAjAAMCwGCWCGSAGG+EIBDQQfFh1PcGVu
U1NMIEdlbmVyYXRlZCBDZXJ0aWZpY2F0ZTAdBgNVHQ4EFgQUa79TGXMZStSmhSye
GAuPIyqf75EwHwYDVR0jBBgwFoAUE4GJKx8k2Hr1ylxFbth20CeIk1gwDQYJKoZI
hvcNAQELBQADggEBADWTi5eM/0PFyNbZ7esRQE78U+4Tg/NDGcajLEtJO0dJ1+e/
CA5kaZm2rjakhWB4OV1Htk8vzPSbTCih1HqDNHznHAdJXJWxFGrGVqiW3IOEY6lY
RXwBj3XTqKTcFVxHi9rwKPE3EOn02Xl6ITlxntAhDzw4dvcQaA+u+ZbPxWu8H3+a
fmDVM28mKklq0NRS0xpxt0suDTGCiR6ZKEzlEArej5Y7BQZ2i/zHsFe7dOioLmVM
QIcr+SXSzavJ0Uz0ZMz2agZuEqUybi9Fm6lrzDAyCY1PcQHMz5t1qQM1vifTnTDR
cQ06eCQQeceX7omFFGVg85Jghazgf1oUzyeAJ3w=
-----END CERTIFICATE-----
